target datalayout = "e-m:e-p270:32:32-p271:32:32-p272:64:64-i64:64-i128:128-f80:128-n8:16:32:64-S128"
target triple = "x86_64-pc-linux-gnu"

%struct.mz_zip_archive = type { i64, i64, i32, i32, i32, i32, i64, ptr, ptr, ptr, ptr, ptr, ptr, ptr, ptr, ptr }
%struct.mz_zip_internal_state_tag = type { %struct.mz_zip_array, %struct.mz_zip_array, %struct.mz_zip_array, i32, i32, i32, ptr, i64, ptr, i64, i64 }
%struct.mz_zip_array = type { ptr, i64, i64, i32 }

; Function Attrs: nounwind uwtable
define i64 @mz_zip_get_archive_file_start_offset(ptr noundef %0) #0 {
  %2 = alloca i64, align 8
  %3 = alloca ptr, align 8
  store ptr %0, ptr %3, align 8
  %4 = load ptr, ptr %3, align 8
  %5 = icmp ne ptr %4, null
  br i1 %5, label %6, label %11

6:                                                ; preds = %1
  %7 = load ptr, ptr %3, align 8
  %8 = getelementptr inbounds nuw %struct.mz_zip_archive, ptr %7, i32 0, i32 15
  %9 = load ptr, ptr %8, align 8
  %10 = icmp ne ptr %9, null
  br i1 %10, label %12, label %11

11:                                               ; preds = %6, %1
  store i64 0, ptr %2, align 8
  br label %18

12:                                               ; preds = %6
  %13 = load ptr, ptr %3, align 8
  %14 = getelementptr inbounds nuw %struct.mz_zip_archive, ptr %13, i32 0, i32 15
  %15 = load ptr, ptr %14, align 8
  %16 = getelementptr inbounds nuw %struct.mz_zip_internal_state_tag, ptr %15, i32 0, i32 7
  %17 = load i64, ptr %16, align 8
  store i64 %17, ptr %2, align 8
  br label %18

18:                                               ; preds = %12, %11
  %19 = load i64, ptr %2, align 8
  ret i64 %19
}